Certificate:
    Data:
        Version: 3 (0x2)
        Serial Number: 4127 (0x101f)
    Signature Algorithm: sha256WithRSAEncryption
        Issuer: C=US, ST=NC, L=Raleigh, O=NCSU, OU=CSC, CN=574/emailAddress=harfoush@cs.ncsu.edu
        Validity
            Not Before: Nov 23 18:28:24 2015 GMT
            Not After : Nov 22 18:28:24 2016 GMT
        Subject: C=US, ST=North Carolina, L=Raleigh, O=Internet Widgits Pty Ltd/emailAddress=sbanda@ncsu.edu
        Subject Public Key Info:
            Public Key Algorithm: rsaEncryption
                Public-Key: (1024 bit)
                Modulus:
                    00:d9:8d:48:e9:61:c5:84:0d:dd:c1:d4:3f:b0:c2:
                    75:de:40:30:37:b6:4d:9c:c9:4c:ad:63:b5:f0:8c:
                    6d:51:a7:14:b6:40:5c:23:76:d0:c8:56:12:ed:2e:
                    c7:f8:32:5a:a7:73:20:00:7b:53:3b:96:4c:04:03:
                    15:b7:2c:ca:54:ac:3e:4e:10:d3:d5:98:cc:b9:6a:
                    ea:0d:db:d4:2d:df:96:16:ed:64:f2:2e:c5:cd:97:
                    34:0c:5a:9d:3f:b6:ab:34:3c:32:59:51:aa:6d:5f:
                    02:0c:c1:be:76:8e:a3:6d:f3:0d:94:02:b3:81:ab:
                    d4:2a:2b:25:ae:1a:34:b3:6d
                Exponent: 65537 (0x10001)
        X509v3 extensions:
            X509v3 Basic Constraints: 
                CA:FALSE
            Netscape Comment: 
                OpenSSL Generated Certificate
            X509v3 Subject Key Identifier: 
                D2:FC:BC:CB:08:6E:CF:ED:ED:DA:E1:DD:20:35:0A:69:F9:CB:C3:8D
            X509v3 Authority Key Identifier: 
                keyid:AE:85:18:73:51:F3:9C:38:22:0B:55:8C:52:2F:C2:95:06:F9:9D:EF

    Signature Algorithm: sha256WithRSAEncryption
         1b:a4:cb:8b:ed:13:83:cb:97:bf:fe:1a:bf:29:10:87:c2:b7:
         f4:1d:57:f1:9b:8e:45:da:c8:8a:a4:c6:c8:9b:9e:7a:73:6c:
         6d:8e:a8:11:ae:e0:ef:66:01:4a:dd:ff:5d:f7:00:70:e8:ff:
         13:bc:aa:74:b6:06:41:bb:30:96:22:6d:dc:1e:12:9f:89:9e:
         cb:96:9c:e9:c1:6c:cb:63:a9:6d:09:ba:37:d7:2a:7d:33:14:
         33:48:31:6f:cf:5c:7b:2c:01:d6:94:07:9a:a4:ab:f7:44:e1:
         e5:e6:96:d2:70:5b:ae:81:3f:06:e8:22:24:22:58:33:7a:ef:
         f4:cf
-----BEGIN CERTIFICATE-----
MIIC6TCCAlKgAwIBAgICEB8wDQYJKoZIhvcNAQELBQAwfDELMAkGA1UEBhMCVVMx
CzAJBgNVBAgMAk5DMRAwDgYDVQQHDAdSYWxlaWdoMQ0wCwYDVQQKDAROQ1NVMQww
CgYDVQQLDANDU0MxDDAKBgNVBAMMAzU3NDEjMCEGCSqGSIb3DQEJARYUaGFyZm91
c2hAY3MubmNzdS5lZHUwHhcNMTUxMTIzMTgyODI0WhcNMTYxMTIyMTgyODI0WjB7
MQswCQYDVQQGEwJVUzEXMBUGA1UECAwOTm9ydGggQ2Fyb2xpbmExEDAOBgNVBAcM
B1JhbGVpZ2gxITAfBgNVBAoMGEludGVybmV0IFdpZGdpdHMgUHR5IEx0ZDEeMBwG
CSqGSIb3DQEJARYPc2JhbmRhQG5jc3UuZWR1MIGfMA0GCSqGSIb3DQEBAQUAA4GN
ADCBiQKBgQDZjUjpYcWEDd3B1D+wwnXeQDA3tk2cyUytY7XwjG1RpxS2QFwjdtDI
VhLtLsf4MlqncyAAe1M7lkwEAxW3LMpUrD5OENPVmMy5auoN29Qt35YW7WTyLsXN
lzQMWp0/tqs0PDJZUaptXwIMwb52jqNt8w2UArOBq9QqKyWuGjSzbQIDAQABo3sw
eTAJBgNVHRMEAjAAMCwGCWCGSAGG+EIBDQQfFh1PcGVuU1NMIEdlbmVyYXRlZCBD
ZXJ0aWZpY2F0ZTAdBgNVHQ4EFgQU0vy8ywhuz+3t2uHdIDUKafnLw40wHwYDVR0j
BBgwFoAUroUYc1HznDgiC1WMUi/ClQb5ne8wDQYJKoZIhvcNAQELBQADgYEAG6TL
i+0Tg8uXv/4avykQh8K39B1X8ZuORdrIiqTGyJueenNsbY6oEa7g72YBSt3/XfcA
cOj/E7yqdLYGQbswliJt3B4Sn4mey5ac6cFsy2OpbQm6N9cqfTMUM0gxb89ceywB
1pQHmqSr90Th5eaW0nBbroE/BugiJCJYM3rv9M8=
-----END CERTIFICATE-----
