Certificate:
    Data:
        Version: 3 (0x2)
        Serial Number: 4129 (0x1021)
    Signature Algorithm: sha256WithRSAEncryption
        Issuer: C=US, ST=NC, L=Raleigh, O=NCSU, OU=CSC, CN=574/emailAddress=harfoush@cs.ncsu.edu
        Validity
            Not Before: Nov 23 18:28:25 2015 GMT
            Not After : Nov 22 18:28:25 2016 GMT
        Subject: C=US, ST=North Carolina, L=Raleigh, O=NCSU, OU=Net Sec/emailAddress=sramakr6@ncsu.edu
        Subject Public Key Info:
            Public Key Algorithm: rsaEncryption
                Public-Key: (1024 bit)
                Modulus:
                    00:f4:74:37:a3:f1:ed:6c:b9:43:30:6e:b8:cb:b6:
                    27:dd:27:83:cf:cb:ab:b3:a4:44:de:79:d3:ef:47:
                    5f:e5:61:00:3b:4a:bc:36:50:e8:c6:25:a6:ee:e9:
                    15:45:d4:d7:4f:31:34:cc:a4:e0:45:f1:31:b5:88:
                    68:7b:d0:17:5a:c9:c0:14:17:67:62:41:ea:b4:c6:
                    d2:4a:4a:6e:02:bf:12:c6:64:ea:c7:b9:e3:bb:dc:
                    a3:28:d3:0e:99:eb:3d:15:1a:a1:e5:3d:7a:aa:d5:
                    6c:a8:a5:66:93:48:02:c4:57:ac:99:f2:24:a2:1b:
                    c2:79:e6:de:d7:1d:d6:cc:49
                Exponent: 65537 (0x10001)
        X509v3 extensions:
            X509v3 Basic Constraints: 
                CA:FALSE
            Netscape Comment: 
                OpenSSL Generated Certificate
            X509v3 Subject Key Identifier: 
                CF:C6:9C:45:17:BA:1D:45:2F:1D:5D:05:B1:FF:AF:6D:46:A1:4A:BC
            X509v3 Authority Key Identifier: 
                keyid:AE:85:18:73:51:F3:9C:38:22:0B:55:8C:52:2F:C2:95:06:F9:9D:EF

    Signature Algorithm: sha256WithRSAEncryption
         6b:ef:2d:74:f4:31:65:3e:cb:a4:fe:39:a2:3c:2f:6a:36:ab:
         f5:e1:5f:a5:49:ee:81:f5:ee:e7:a4:a2:c6:b9:c2:0d:7f:a8:
         3a:80:b9:bc:6c:5c:0f:57:2a:18:11:ac:8f:b0:a5:d0:76:16:
         0e:0a:7b:ca:08:51:14:f5:ba:d5:be:d8:af:36:60:1c:9c:4e:
         a9:8c:b6:8a:96:e2:8e:77:50:ab:eb:63:96:a1:15:7c:da:ba:
         2d:be:5a:4f:8d:2a:40:31:35:ba:71:cf:6a:4f:e2:67:cb:d5:
         db:b8:4a:07:7d:7b:b2:b9:32:56:5e:d0:5e:77:7f:19:af:69:
         93:50
-----BEGIN CERTIFICATE-----
MIIC6TCCAlKgAwIBAgICECEwDQYJKoZIhvcNAQELBQAwfDELMAkGA1UEBhMCVVMx
CzAJBgNVBAgMAk5DMRAwDgYDVQQHDAdSYWxlaWdoMQ0wCwYDVQQKDAROQ1NVMQww
CgYDVQQLDANDU0MxDDAKBgNVBAMMAzU3NDEjMCEGCSqGSIb3DQEJARYUaGFyZm91
c2hAY3MubmNzdS5lZHUwHhcNMTUxMTIzMTgyODI1WhcNMTYxMTIyMTgyODI1WjB7
MQswCQYDVQQGEwJVUzEXMBUGA1UECBMOTm9ydGggQ2Fyb2xpbmExEDAOBgNVBAcT
B1JhbGVpZ2gxDTALBgNVBAoTBE5DU1UxEDAOBgNVBAsTB05ldCBTZWMxIDAeBgkq
hkiG9w0BCQEWEXNyYW1ha3I2QG5jc3UuZWR1MIGfMA0GCSqGSIb3DQEBAQUAA4GN
ADCBiQKBgQD0dDej8e1suUMwbrjLtifdJ4PPy6uzpETeedPvR1/lYQA7Srw2UOjG
Jabu6RVF1NdPMTTMpOBF8TG1iGh70BdaycAUF2diQeq0xtJKSm4CvxLGZOrHueO7
3KMo0w6Z6z0VGqHlPXqq1WyopWaTSALEV6yZ8iSiG8J55t7XHdbMSQIDAQABo3sw
eTAJBgNVHRMEAjAAMCwGCWCGSAGG+EIBDQQfFh1PcGVuU1NMIEdlbmVyYXRlZCBD
ZXJ0aWZpY2F0ZTAdBgNVHQ4EFgQUz8acRRe6HUUvHV0Fsf+vbUahSrwwHwYDVR0j
BBgwFoAUroUYc1HznDgiC1WMUi/ClQb5ne8wDQYJKoZIhvcNAQELBQADgYEAa+8t
dPQxZT7LpP45ojwvajar9eFfpUnugfXu56SixrnCDX+oOoC5vGxcD1cqGBGsj7Cl
0HYWDgp7yghRFPW61b7YrzZgHJxOqYy2ipbijndQq+tjlqEVfNq6Lb5aT40qQDE1
unHPak/iZ8vV27hKB317srkyVl7QXnd/Ga9pk1A=
-----END CERTIFICATE-----
