Certificate:
    Data:
        Version: 3 (0x2)
        Serial Number: 4122 (0x101a)
    Signature Algorithm: sha256WithRSAEncryption
        Issuer: C=US, ST=NC, L=Raleigh, O=NCSU, OU=CSC, CN=574/emailAddress=harfoush@cs.ncsu.edu
        Validity
            Not Before: Nov 23 18:27:43 2015 GMT
            Not After : Nov 22 18:27:43 2016 GMT
        Subject: C=US, ST=North Carolina, L=Raleigh, O=NCSU, OU=NetSec, CN=mmuruga.com/emailAddress=mmuruga@ncsu.edu
        Subject Public Key Info:
            Public Key Algorithm: rsaEncryption
                Public-Key: (1024 bit)
                Modulus:
                    00:d8:ab:1b:a1:6b:61:9c:ca:93:a7:57:04:66:c7:
                    83:77:d8:a0:4f:47:40:b8:1d:e3:97:e8:58:b3:12:
                    71:04:61:87:65:bc:b8:d6:31:84:49:f3:b8:d4:ee:
                    c8:ee:e3:81:46:e0:cf:73:ff:7b:51:ce:4b:20:0f:
                    2e:d9:45:7b:bd:24:b1:9d:32:77:cd:4d:80:72:e8:
                    45:b7:0f:a3:66:81:9f:b5:f5:3a:37:a2:62:68:09:
                    8a:ee:0d:13:a7:d6:bf:93:76:ff:57:ac:52:74:18:
                    a6:36:1c:f1:21:92:bd:e0:b3:c6:1d:18:60:25:e1:
                    66:5f:ea:8a:c0:e4:b1:2a:13
                Exponent: 65537 (0x10001)
        X509v3 extensions:
            X509v3 Basic Constraints: 
                CA:FALSE
            Netscape Comment: 
                OpenSSL Generated Certificate
            X509v3 Subject Key Identifier: 
                D1:29:1E:45:8D:A6:AA:47:78:3E:A4:25:7D:71:3C:B7:E1:E8:CE:0F
            X509v3 Authority Key Identifier: 
                keyid:AE:85:18:73:51:F3:9C:38:22:0B:55:8C:52:2F:C2:95:06:F9:9D:EF

    Signature Algorithm: sha256WithRSAEncryption
         0f:a2:b2:21:cc:06:eb:4d:88:ba:0d:28:0b:11:97:7d:6f:a6:
         53:d5:6b:32:f1:c1:78:e0:4f:e4:39:28:23:d4:08:ae:72:da:
         ad:f6:28:0e:4e:cc:d1:6b:8f:53:fd:2b:69:ca:0a:a8:97:b1:
         88:53:59:d4:30:88:7f:30:2e:33:af:72:1b:35:66:f9:f3:3f:
         91:6f:52:ec:7c:f5:98:76:3d:5d:cf:60:27:73:67:db:d7:7a:
         47:12:66:4e:26:f3:bf:ea:57:52:8a:c7:8f:c4:0d:9a:d4:f3:
         00:ea:52:b1:7b:e0:17:ed:cc:12:f3:e5:bf:22:7b:78:e6:98:
         55:9a
-----BEGIN CERTIFICATE-----
MIIC/jCCAmegAwIBAgICEBowDQYJKoZIhvcNAQELBQAwfDELMAkGA1UEBhMCVVMx
CzAJBgNVBAgMAk5DMRAwDgYDVQQHDAdSYWxlaWdoMQ0wCwYDVQQKDAROQ1NVMQww
CgYDVQQLDANDU0MxDDAKBgNVBAMMAzU3NDEjMCEGCSqGSIb3DQEJARYUaGFyZm91
c2hAY3MubmNzdS5lZHUwHhcNMTUxMTIzMTgyNzQzWhcNMTYxMTIyMTgyNzQzWjCB
jzELMAkGA1UEBhMCVVMxFzAVBgNVBAgMDk5vcnRoIENhcm9saW5hMRAwDgYDVQQH
DAdSYWxlaWdoMQ0wCwYDVQQKDAROQ1NVMQ8wDQYDVQQLDAZOZXRTZWMxFDASBgNV
BAMMC21tdXJ1Z2EuY29tMR8wHQYJKoZIhvcNAQkBFhBtbXVydWdhQG5jc3UuZWR1
MIGfMA0GCSqGSIb3DQEBAQUAA4GNADCBiQKBgQDYqxuha2GcypOnVwRmx4N32KBP
R0C4HeOX6FizEnEEYYdlvLjWMYRJ87jU7sju44FG4M9z/3tRzksgDy7ZRXu9JLGd
MnfNTYBy6EW3D6NmgZ+19To3omJoCYruDROn1r+Tdv9XrFJ0GKY2HPEhkr3gs8Yd
GGAl4WZf6orA5LEqEwIDAQABo3sweTAJBgNVHRMEAjAAMCwGCWCGSAGG+EIBDQQf
Fh1PcGVuU1NMIEdlbmVyYXRlZCBDZXJ0aWZpY2F0ZTAdBgNVHQ4EFgQU0SkeRY2m
qkd4PqQlfXE8t+Hozg8wHwYDVR0jBBgwFoAUroUYc1HznDgiC1WMUi/ClQb5ne8w
DQYJKoZIhvcNAQELBQADgYEAD6KyIcwG602Iug0oCxGXfW+mU9VrMvHBeOBP5Dko
I9QIrnLarfYoDk7M0WuPU/0racoKqJexiFNZ1DCIfzAuM69yGzVm+fM/kW9S7Hz1
mHY9Xc9gJ3Nn29d6RxJmTibzv+pXUorHj8QNmtTzAOpSsXvgF+3MEvPlvyJ7eOaY
VZo=
-----END CERTIFICATE-----
