Certificate:
    Data:
        Version: 3 (0x2)
        Serial Number: 4130 (0x1022)
    Signature Algorithm: sha256WithRSAEncryption
        Issuer: C=US, ST=NC, L=Raleigh, O=NCSU, OU=CSC, CN=574/emailAddress=harfoush@cs.ncsu.edu
        Validity
            Not Before: Nov 23 18:28:25 2015 GMT
            Not After : Nov 22 18:28:25 2016 GMT
        Subject: C=US, ST=North Carolina, L=Raleigh, O=NCSU, OU=CS, CN=sabdul-ravnee/emailAddress=sabdul@ncsu.edu
        Subject Public Key Info:
            Public Key Algorithm: rsaEncryption
                Public-Key: (1024 bit)
                Modulus:
                    00:b3:2d:5e:2f:f8:9f:92:3c:4b:be:9c:fb:69:78:
                    8d:12:90:c2:bd:af:ef:27:00:e3:19:4f:77:2a:43:
                    fe:d4:10:32:b7:d9:ca:a8:a4:bc:5b:28:75:19:8d:
                    e6:a9:cd:50:84:8c:09:a6:34:71:77:ee:10:d7:b6:
                    61:cf:2c:1b:81:34:31:58:39:06:18:7a:00:bf:70:
                    a8:68:e2:dc:99:0d:5e:67:16:c0:6f:e1:bd:a2:23:
                    fc:3a:b2:d0:45:6d:ea:c1:67:34:2b:26:47:65:49:
                    c2:6c:c8:ed:d4:1c:5f:24:ce:31:3e:1e:d7:7f:f6:
                    ee:78:a5:70:c8:c7:7f:bb:c1
                Exponent: 65537 (0x10001)
        X509v3 extensions:
            X509v3 Basic Constraints: 
                CA:FALSE
            Netscape Comment: 
                OpenSSL Generated Certificate
            X509v3 Subject Key Identifier: 
                46:D7:F5:8C:2E:A5:FA:52:29:64:88:BA:C8:8E:7F:93:D0:A8:B7:32
            X509v3 Authority Key Identifier: 
                keyid:AE:85:18:73:51:F3:9C:38:22:0B:55:8C:52:2F:C2:95:06:F9:9D:EF

    Signature Algorithm: sha256WithRSAEncryption
         1f:77:87:33:d1:19:11:5a:d8:b6:e0:d8:a3:24:1f:10:eb:08:
         e3:47:20:43:22:2b:d6:9a:de:fa:61:a6:21:7c:14:77:6d:89:
         7a:0c:68:0a:58:1b:6b:30:ba:28:34:09:34:e3:8c:6c:7c:ec:
         80:94:84:42:03:99:6f:8e:19:73:87:b1:6d:8a:62:30:62:a8:
         49:b9:55:5c:bb:56:1e:99:1f:c9:23:26:14:b1:83:ca:6f:8c:
         57:50:76:77:a7:a5:12:c1:a4:05:ac:7d:ec:d6:d5:84:d9:b4:
         56:bb:bf:f6:a6:f2:66:c4:c2:44:79:11:94:3c:19:f9:be:2c:
         b8:c5
-----BEGIN CERTIFICATE-----
MIIC+zCCAmSgAwIBAgICECIwDQYJKoZIhvcNAQELBQAwfDELMAkGA1UEBhMCVVMx
CzAJBgNVBAgMAk5DMRAwDgYDVQQHDAdSYWxlaWdoMQ0wCwYDVQQKDAROQ1NVMQww
CgYDVQQLDANDU0MxDDAKBgNVBAMMAzU3NDEjMCEGCSqGSIb3DQEJARYUaGFyZm91
c2hAY3MubmNzdS5lZHUwHhcNMTUxMTIzMTgyODI1WhcNMTYxMTIyMTgyODI1WjCB
jDELMAkGA1UEBhMCVVMxFzAVBgNVBAgMDk5vcnRoIENhcm9saW5hMRAwDgYDVQQH
DAdSYWxlaWdoMQ0wCwYDVQQKDAROQ1NVMQswCQYDVQQLDAJDUzEWMBQGA1UEAwwN
c2FiZHVsLXJhdm5lZTEeMBwGCSqGSIb3DQEJARYPc2FiZHVsQG5jc3UuZWR1MIGf
MA0GCSqGSIb3DQEBAQUAA4GNADCBiQKBgQCzLV4v+J+SPEu+nPtpeI0SkMK9r+8n
AOMZT3cqQ/7UEDK32cqopLxbKHUZjeapzVCEjAmmNHF37hDXtmHPLBuBNDFYOQYY
egC/cKho4tyZDV5nFsBv4b2iI/w6stBFberBZzQrJkdlScJsyO3UHF8kzjE+Htd/
9u54pXDIx3+7wQIDAQABo3sweTAJBgNVHRMEAjAAMCwGCWCGSAGG+EIBDQQfFh1P
cGVuU1NMIEdlbmVyYXRlZCBDZXJ0aWZpY2F0ZTAdBgNVHQ4EFgQURtf1jC6l+lIp
ZIi6yI5/k9CotzIwHwYDVR0jBBgwFoAUroUYc1HznDgiC1WMUi/ClQb5ne8wDQYJ
KoZIhvcNAQELBQADgYEAH3eHM9EZEVrYtuDYoyQfEOsI40cgQyIr1pre+mGmIXwU
d22JegxoClgbazC6KDQJNOOMbHzsgJSEQgOZb44Zc4exbYpiMGKoSblVXLtWHpkf
ySMmFLGDym+MV1B2d6elEsGkBax97NbVhNm0Vru/9qbyZsTCRHkRlDwZ+b4suMU=
-----END CERTIFICATE-----
